; Function Attrs: mustprogress uwtable
define void @_ZNK6opencc9Converter7ConvertERKNSt7__cxx1112basic_stringIcSt11char_traitsIcESaIcEEE(ptr dead_on_unwind noalias writable sret(%"class.std::__cxx11::basic_string") align 8 %0, ptr nocapture noundef nonnull readonly align 8 dereferenceable(64) %1, ptr noundef nonnull align 8 dereferenceable(32) %2) local_unnamed_addr #3 align 2 personality ptr @__gxx_personality_v0 {
  %4 = alloca %"class.std::shared_ptr", align 8
  %5 = alloca %"class.std::shared_ptr", align 8
  %6 = getelementptr inbounds i8, ptr %1, i64 32
  %7 = load ptr, ptr %6, align 8
  %8 = load ptr, ptr %7, align 8
  %9 = load ptr, ptr %8, align 8
  call void %9(ptr dead_on_unwind nonnull writable sret(%"class.std::shared_ptr") align 8 %4, ptr noundef nonnull align 8 dereferenceable(8) %7, ptr noundef nonnull align 8 dereferenceable(32) %2)
  %10 = getelementptr inbounds i8, ptr %1, i64 48
  %11 = load ptr, ptr %10, align 8
  invoke void @_ZNK6opencc15ConversionChain7ConvertERKSt10shared_ptrINS_8SegmentsEE(ptr dead_on_unwind nonnull writable sret(%"class.std::shared_ptr") align 8 %5, ptr noundef nonnull align 8 dereferenceable(24) %11, ptr noundef nonnull align 8 dereferenceable(16) %4)
          to label %12 unwind label %87

12:                                               ; preds = %3
  %13 = load ptr, ptr %5, align 8
  invoke void @_ZNK6opencc8Segments8ToStringB5cxx11Ev(ptr dead_on_unwind writable sret(%"class.std::__cxx11::basic_string") align 8 %0, ptr noundef nonnull align 8 dereferenceable(72) %13)
          to label %14 unwind label %89

14:                                               ; preds = %12
  %15 = getelementptr inbounds i8, ptr %5, i64 8
  %16 = load ptr, ptr %15, align 8
  %.not.i.i.i = icmp eq ptr %16, null
  br i1 %.not.i.i.i, label %_ZNSt10shared_ptrIN6opencc8SegmentsEED2Ev.exit, label %17

17:                                               ; preds = %14
  %18 = getelementptr inbounds i8, ptr %16, i64 8
  %19 = load atomic i64, ptr %18 acquire, align 8
  %20 = icmp eq i64 %19, 4294967297
  %21 = trunc i64 %19 to i32
  br i1 %20, label %22, label %27

22:                                               ; preds = %17
  store i32 0, ptr %18, align 8
  %23 = getelementptr inbounds i8, ptr %16, i64 12
  store i32 0, ptr %23, align 4
  %24 = load ptr, ptr %16, align 8
  %25 = getelementptr inbounds i8, ptr %24, i64 16
  %26 = load ptr, ptr %25, align 8
  call void %26(ptr noundef nonnull align 8 dereferenceable(16) %16) #8
  br label %_ZNSt16_Sp_counted_baseILN9__gnu_cxx12_Lock_policyE2EE24_M_release_last_use_coldEv.exit.sink.split.i.i.i.i

27:                                               ; preds = %17
  %28 = load i8, ptr @__libc_single_threaded, align 1
  %.not.i.i.i.i = icmp eq i8 %28, 0
  br i1 %.not.i.i.i.i, label %31, label %29

29:                                               ; preds = %27
  %30 = add nsw i32 %21, -1
  store i32 %30, ptr %18, align 4
  br label %33

31:                                               ; preds = %27
  %32 = atomicrmw volatile add ptr %18, i32 -1 acq_rel, align 4
  br label %33

33:                                               ; preds = %31, %29
  %.0.i.i.i.i = phi i32 [ %21, %29 ], [ %32, %31 ]
  %34 = icmp eq i32 %.0.i.i.i.i, 1
  br i1 %34, label %35, label %_ZNSt10shared_ptrIN6opencc8SegmentsEED2Ev.exit

35:                                               ; preds = %33
  %36 = load ptr, ptr %16, align 8
  %37 = getelementptr inbounds i8, ptr %36, i64 16
  %38 = load ptr, ptr %37, align 8
  call void %38(ptr noundef nonnull align 8 dereferenceable(16) %16) #8
  %39 = getelementptr inbounds i8, ptr %16, i64 12
  %40 = load i8, ptr @__libc_single_threaded, align 1
  %.not.i.i.i.i.i.i = icmp eq i8 %40, 0
  br i1 %.not.i.i.i.i.i.i, label %44, label %41

41:                                               ; preds = %35
  %42 = load i32, ptr %39, align 4
  %43 = add nsw i32 %42, -1
  store i32 %43, ptr %39, align 4
  br label %46

44:                                               ; preds = %35
  %45 = atomicrmw volatile add ptr %39, i32 -1 acq_rel, align 4
  br label %46

46:                                               ; preds = %44, %41
  %.0.i.i.i.i.i.i = phi i32 [ %42, %41 ], [ %45, %44 ]
  %47 = icmp eq i32 %.0.i.i.i.i.i.i, 1
  br i1 %47, label %_ZNSt16_Sp_counted_baseILN9__gnu_cxx12_Lock_policyE2EE24_M_release_last_use_coldEv.exit.sink.split.i.i.i.i, label %_ZNSt10shared_ptrIN6opencc8SegmentsEED2Ev.exit

_ZNSt16_Sp_counted_baseILN9__gnu_cxx12_Lock_policyE2EE24_M_release_last_use_coldEv.exit.sink.split.i.i.i.i: ; preds = %46, %22
  %48 = load ptr, ptr %16, align 8
  %49 = getelementptr inbounds i8, ptr %48, i64 24
  %50 = load ptr, ptr %49, align 8
  call void %50(ptr noundef nonnull align 8 dereferenceable(16) %16) #8
  br label %_ZNSt10shared_ptrIN6opencc8SegmentsEED2Ev.exit

_ZNSt10shared_ptrIN6opencc8SegmentsEED2Ev.exit:   ; preds = %14, %33, %46, %_ZNSt16_Sp_counted_baseILN9__gnu_cxx12_Lock_policyE2EE24_M_release_last_use_coldEv.exit.sink.split.i.i.i.i
  %51 = getelementptr inbounds i8, ptr %4, i64 8
  %52 = load ptr, ptr %51, align 8
  %.not.i.i.i7 = icmp eq ptr %52, null
  br i1 %.not.i.i.i7, label %_ZNSt10shared_ptrIN6opencc8SegmentsEED2Ev.exit13, label %53

53:                                               ; preds = %_ZNSt10shared_ptrIN6opencc8SegmentsEED2Ev.exit
  %54 = getelementptr inbounds i8, ptr %52, i64 8
  %55 = load atomic i64, ptr %54 acquire, align 8
  %56 = icmp eq i64 %55, 4294967297
  %57 = trunc i64 %55 to i32
  br i1 %56, label %58, label %63

58:                                               ; preds = %53
  store i32 0, ptr %54, align 8
  %59 = getelementptr inbounds i8, ptr %52, i64 12
  store i32 0, ptr %59, align 4
  %60 = load ptr, ptr %52, align 8
  %61 = getelementptr inbounds i8, ptr %60, i64 16
  %62 = load ptr, ptr %61, align 8
  call void %62(ptr noundef nonnull align 8 dereferenceable(16) %52) #8
  br label %_ZNSt16_Sp_counted_baseILN9__gnu_cxx12_Lock_policyE2EE24_M_release_last_use_coldEv.exit.sink.split.i.i.i.i12

63:                                               ; preds = %53
  %64 = load i8, ptr @__libc_single_threaded, align 1
  %.not.i.i.i.i8 = icmp eq i8 %64, 0
  br i1 %.not.i.i.i.i8, label %67, label %65

65:                                               ; preds = %63
  %66 = add nsw i32 %57, -1
  store i32 %66, ptr %54, align 4
  br label %69

67:                                               ; preds = %63
  %68 = atomicrmw volatile add ptr %54, i32 -1 acq_rel, align 4
  br label %69

69:                                               ; preds = %67, %65
  %.0.i.i.i.i9 = phi i32 [ %57, %65 ], [ %68, %67 ]
  %70 = icmp eq i32 %.0.i.i.i.i9, 1
  br i1 %70, label %71, label %_ZNSt10shared_ptrIN6opencc8SegmentsEED2Ev.exit13

71:                                               ; preds = %69
  %72 = load ptr, ptr %52, align 8
  %73 = getelementptr inbounds i8, ptr %72, i64 16
  %74 = load ptr, ptr %73, align 8
  call void %74(ptr noundef nonnull align 8 dereferenceable(16) %52) #8
  %75 = getelementptr inbounds i8, ptr %52, i64 12
  %76 = load i8, ptr @__libc_single_threaded, align 1
  %.not.i.i.i.i.i.i10 = icmp eq i8 %76, 0
  br i1 %.not.i.i.i.i.i.i10, label %80, label %77

77:                                               ; preds = %71
  %78 = load i32, ptr %75, align 4
  %79 = add nsw i32 %78, -1
  store i32 %79, ptr %75, align 4
  br label %82

80:                                               ; preds = %71
  %81 = atomicrmw volatile add ptr %75, i32 -1 acq_rel, align 4
  br label %82

82:                                               ; preds = %80, %77
  %.0.i.i.i.i.i.i11 = phi i32 [ %78, %77 ], [ %81, %80 ]
  %83 = icmp eq i32 %.0.i.i.i.i.i.i11, 1
  br i1 %83, label %_ZNSt16_Sp_counted_baseILN9__gnu_cxx12_Lock_policyE2EE24_M_release_last_use_coldEv.exit.sink.split.i.i.i.i12, label %_ZNSt10shared_ptrIN6opencc8SegmentsEED2Ev.exit13

_ZNSt16_Sp_counted_baseILN9__gnu_cxx12_Lock_policyE2EE24_M_release_last_use_coldEv.exit.sink.split.i.i.i.i12: ; preds = %82, %58
  %84 = load ptr, ptr %52, align 8
  %85 = getelementptr inbounds i8, ptr %84, i64 24
  %86 = load ptr, ptr %85, align 8
  call void %86(ptr noundef nonnull align 8 dereferenceable(16) %52) #8
  br label %_ZNSt10shared_ptrIN6opencc8SegmentsEED2Ev.exit13

_ZNSt10shared_ptrIN6opencc8SegmentsEED2Ev.exit13: ; preds = %_ZNSt10shared_ptrIN6opencc8SegmentsEED2Ev.exit, %69, %82, %_ZNSt16_Sp_counted_baseILN9__gnu_cxx12_Lock_policyE2EE24_M_release_last_use_coldEv.exit.sink.split.i.i.i.i12
  ret void

87:                                               ; preds = %3
  %88 = landingpad { ptr, i32 }
          cleanup
  br label %91

89:                                               ; preds = %12
  %90 = landingpad { ptr, i32 }
          cleanup
  call void @_ZNSt10shared_ptrIN6opencc8SegmentsEED2Ev(ptr noundef nonnull align 8 dereferenceable(16) %5) #8
  br label %91

91:                                               ; preds = %89, %87
  %.pn = phi { ptr, i32 } [ %90, %89 ], [ %88, %87 ]
  call void @_ZNSt10shared_ptrIN6opencc8SegmentsEED2Ev(ptr noundef nonnull align 8 dereferenceable(16) %4) #8
  resume { ptr, i32 } %.pn
}